(dp0
S'gmean'
p1
cgvar._bufferdict
BufferDict
p2
(tRp3
(dp4
S'layout'
p5
ccollections
OrderedDict
p6
((lp7
(lp8
cnumpy.core.multiarray
scalar
p9
(cnumpy
dtype
p10
(S'S3'
p11
I0
I1
tp12
Rp13
(I3
S'|'
p14
NNNI3
I1
I0
tp15
bS'L_4'
p16
tp17
Rp18
a(I0
(ttp19
aa(lp20
g9
(g10
(S'S3'
p21
I0
I1
tp22
Rp23
(I3
S'|'
p24
NNNI3
I1
I0
tp25
bS'L_5'
p26
tp27
Rp28
a(I1
(ttp29
aa(lp30
g9
(g10
(S'S3'
p31
I0
I1
tp32
Rp33
(I3
S'|'
p34
NNNI3
I1
I0
tp35
bS'A_p'
p36
tp37
Rp38
a(I2
(ttp39
aa(lp40
g9
(g10
(S'S6'
p41
I0
I1
tp42
Rp43
(I3
S'|'
p44
NNNI6
I1
I0
tp45
bS'A_loga'
p46
tp47
Rp48
a(I3
(ttp49
aa(lp50
g9
(g10
(S'S3'
p51
I0
I1
tp52
Rp53
(I3
S'|'
p54
NNNI3
I1
I0
tp55
bS'A_a'
p56
tp57
Rp58
a(I4
(ttp59
aa(lp60
g9
(g10
(S'S3'
p61
I0
I1
tp62
Rp63
(I3
S'|'
p64
NNNI3
I1
I0
tp65
bS'A_k'
p66
tp67
Rp68
a(I5
(ttp69
aatp70
Rp71
sS'buf'
p72
cnumpy.core.multiarray
_reconstruct
p73
(cnumpy
ndarray
p74
(I0
tp75
S'b'
p76
tp77
Rp78
(I1
(L6L
tp79
g10
(S'f8'
p80
I0
I1
tp81
Rp82
(I3
S'<'
p83
NNNI-1
I-1
I0
tp84
bI00
S':\x1f\xcf\x01\xf3\tH?+\xb8~l\xce\\\x0e?*\x9dd\xa6\x8bs\xf7?\x0cD\xc8:\xb0{\x0c?\xa9\x17R\xd6\xb3\xcb\x14?\xa69\xc0\xf6nA\xd0?'
p85
tp86
bsbsS'tag'
p87
(S'pickle'
p88
Ntp89
sS'gcov'
p90
g2
(tRp91
(dp92
g5
g6
((lp93
(lp94
(g18
g18
tp95
a(c__builtin__
slice
p96
(I0
I1
Ntp97
Rp98
(L1L
L1L
tp99
tp100
aa(lp101
(g18
g28
tp102
a(g96
(I1
I2
Ntp103
Rp104
(L1L
L1L
tp105
tp106
aa(lp107
(g18
g38
tp108
a(g96
(I2
I3
Ntp109
Rp110
(L1L
L1L
tp111
tp112
aa(lp113
(g18
g48
tp114
a(g96
(I3
I4
Ntp115
Rp116
(L1L
L1L
tp117
tp118
aa(lp119
(g18
g58
tp120
a(g96
(I4
I5
Ntp121
Rp122
(L1L
L1L
tp123
tp124
aa(lp125
(g18
g68
tp126
a(g96
(I5
I6
Ntp127
Rp128
(L1L
L1L
tp129
tp130
aa(lp131
(g28
g18
tp132
a(g96
(I6
I7
Ntp133
Rp134
(L1L
L1L
tp135
tp136
aa(lp137
(g28
g28
tp138
a(g96
(I7
I8
Ntp139
Rp140
(L1L
L1L
tp141
tp142
aa(lp143
(g28
g38
tp144
a(g96
(I8
I9
Ntp145
Rp146
(L1L
L1L
tp147
tp148
aa(lp149
(g28
g48
tp150
a(g96
(I9
I10
Ntp151
Rp152
(L1L
L1L
tp153
tp154
aa(lp155
(g28
g58
tp156
a(g96
(I10
I11
Ntp157
Rp158
(L1L
L1L
tp159
tp160
aa(lp161
(g28
g68
tp162
a(g96
(I11
I12
Ntp163
Rp164
(L1L
L1L
tp165
tp166
aa(lp167
(g38
g18
tp168
a(g96
(I12
I13
Ntp169
Rp170
(L1L
L1L
tp171
tp172
aa(lp173
(g38
g28
tp174
a(g96
(I13
I14
Ntp175
Rp176
(L1L
L1L
tp177
tp178
aa(lp179
(g38
g38
tp180
a(g96
(I14
I15
Ntp181
Rp182
(L1L
L1L
tp183
tp184
aa(lp185
(g38
g48
tp186
a(g96
(I15
I16
Ntp187
Rp188
(L1L
L1L
tp189
tp190
aa(lp191
(g38
g58
tp192
a(g96
(I16
I17
Ntp193
Rp194
(L1L
L1L
tp195
tp196
aa(lp197
(g38
g68
tp198
a(g96
(I17
I18
Ntp199
Rp200
(L1L
L1L
tp201
tp202
aa(lp203
(g48
g18
tp204
a(g96
(I18
I19
Ntp205
Rp206
(L1L
L1L
tp207
tp208
aa(lp209
(g48
g28
tp210
a(g96
(I19
I20
Ntp211
Rp212
(L1L
L1L
tp213
tp214
aa(lp215
(g48
g38
tp216
a(g96
(I20
I21
Ntp217
Rp218
(L1L
L1L
tp219
tp220
aa(lp221
(g48
g48
tp222
a(g96
(I21
I22
Ntp223
Rp224
(L1L
L1L
tp225
tp226
aa(lp227
(g48
g58
tp228
a(g96
(I22
I23
Ntp229
Rp230
(L1L
L1L
tp231
tp232
aa(lp233
(g48
g68
tp234
a(g96
(I23
I24
Ntp235
Rp236
(L1L
L1L
tp237
tp238
aa(lp239
(g58
g18
tp240
a(g96
(I24
I25
Ntp241
Rp242
(L1L
L1L
tp243
tp244
aa(lp245
(g58
g28
tp246
a(g96
(I25
I26
Ntp247
Rp248
(L1L
L1L
tp249
tp250
aa(lp251
(g58
g38
tp252
a(g96
(I26
I27
Ntp253
Rp254
(L1L
L1L
tp255
tp256
aa(lp257
(g58
g48
tp258
a(g96
(I27
I28
Ntp259
Rp260
(L1L
L1L
tp261
tp262
aa(lp263
(g58
g58
tp264
a(g96
(I28
I29
Ntp265
Rp266
(L1L
L1L
tp267
tp268
aa(lp269
(g58
g68
tp270
a(g96
(I29
I30
Ntp271
Rp272
(L1L
L1L
tp273
tp274
aa(lp275
(g68
g18
tp276
a(g96
(I30
I31
Ntp277
Rp278
(L1L
L1L
tp279
tp280
aa(lp281
(g68
g28
tp282
a(g96
(I31
I32
Ntp283
Rp284
(L1L
L1L
tp285
tp286
aa(lp287
(g68
g38
tp288
a(g96
(I32
I33
Ntp289
Rp290
(L1L
L1L
tp291
tp292
aa(lp293
(g68
g48
tp294
a(g96
(I33
I34
Ntp295
Rp296
(L1L
L1L
tp297
tp298
aa(lp299
(g68
g58
tp300
a(g96
(I34
I35
Ntp301
Rp302
(L1L
L1L
tp303
tp304
aa(lp305
(g68
g68
tp306
a(g96
(I35
I36
Ntp307
Rp308
(L1L
L1L
tp309
tp310
aatp311
Rp312
sg72
g73
(g74
(I0
tp313
g76
tp314
Rp315
(I1
(L36L
tp316
g82
I00
S'^\xda`m\x07\x00\x95>\xca \xaa4\x9b\x1e\x8e>e6\x1cg\xefg\x07?\\\x11\x91\x03\xb7\x97}\xbe\xc8n%\xd7\xc2o\x86\xbe\r\xe2>b\xce+8\xbf\xca \xaa4\x9b\x1e\x8e>\x9az\xb1n\xa7b\x8d>\xf2/_f5\x04\x11?\xab\xcb\xb9\x9dj/V\xbe\xca<\x91\xb1\x13\xfea\xbe\xb1\xc9pSCi:\xbfe6\x1cg\xefg\x07?\xf2/_f5\x04\x11?<C\xbe\x13\xb0\x9b\xa5?w\x1f\x9ey\xc0\xa5\xf5>\xfe=0\xd9\xde\x9e\xff>\xa6\xe7M\\J\x7f\xc1\xbf\\\x11\x91\x03\xb7\x97}\xbe\xab\xcb\xb9\x9dj/V\xbew\x1f\x9ey\xc0\xa5\xf5>\xf0l7\xa9a\xa8\x17?\xdb#\x91g\x90]2\xbedW\xe84\xb9\xb4\xf6\xbe\xc8n%\xd7\xc2o\x86\xbe\xca<\x91\xb1\x13\xfea\xbe\xfe=0\xd9\xde\x9e\xff>\xdb#\x91g\x90]2\xbe\xa1;\x97\x15&\xa8\x17?\x80\xc7\xe9\xb6\x07W\x00\xbf\r\xe2>b\xce+8\xbf\xb1\xc9pSCi:\xbf\xa6\xe7M\\J\x7f\xc1\xbfdW\xe84\xb9\xb4\xf6\xbe\x80\xc7\xe9\xb6\x07W\x00\xbf\xb8=\xa2\x9f\xbe\x8f\xe8?'
p317
tp318
bsbs.