(dp0
S'gmean'
p1
cgvar._bufferdict
BufferDict
p2
(tRp3
(dp4
S'layout'
p5
ccollections
OrderedDict
p6
((lp7
(lp8
cnumpy.core.multiarray
scalar
p9
(cnumpy
dtype
p10
(S'S3'
p11
I0
I1
tp12
Rp13
(I3
S'|'
p14
NNNI3
I1
I0
tp15
bS'L_5'
p16
tp17
Rp18
a(I0
(ttp19
aa(lp20
g9
(g10
(S'S3'
p21
I0
I1
tp22
Rp23
(I3
S'|'
p24
NNNI3
I1
I0
tp25
bS'A_k'
p26
tp27
Rp28
a(I1
(ttp29
aa(lp30
g9
(g10
(S'S3'
p31
I0
I1
tp32
Rp33
(I3
S'|'
p34
NNNI3
I1
I0
tp35
bS'A_a'
p36
tp37
Rp38
a(I2
(ttp39
aa(lp40
g9
(g10
(S'S3'
p41
I0
I1
tp42
Rp43
(I3
S'|'
p44
NNNI3
I1
I0
tp45
bS'A_p'
p46
tp47
Rp48
a(I3
(ttp49
aatp50
Rp51
sS'buf'
p52
cnumpy.core.multiarray
_reconstruct
p53
(cnumpy
ndarray
p54
(I0
tp55
S'b'
p56
tp57
Rp58
(I1
(L4L
tp59
g10
(S'f8'
p60
I0
I1
tp61
Rp62
(I3
S'<'
p63
NNNI-1
I-1
I0
tp64
bI00
S'K\x88\xa5\xb7s\x18\x16\xbf\x01\xb4\r\xb1?X\xb6?\x89\xccd\xb4\xf00\xd5?4\xdb\x00\x89\xbf,\xca?'
p65
tp66
bsbsS'tag'
p67
(S'pickle'
p68
Ntp69
sS'gcov'
p70
g2
(tRp71
(dp72
g5
g6
((lp73
(lp74
(g18
g18
tp75
a(c__builtin__
slice
p76
(I0
I1
Ntp77
Rp78
(L1L
L1L
tp79
tp80
aa(lp81
(g18
g28
tp82
a(g76
(I1
I2
Ntp83
Rp84
(L1L
L1L
tp85
tp86
aa(lp87
(g18
g38
tp88
a(g76
(I2
I3
Ntp89
Rp90
(L1L
L1L
tp91
tp92
aa(lp93
(g18
g48
tp94
a(g76
(I3
I4
Ntp95
Rp96
(L1L
L1L
tp97
tp98
aa(lp99
(g28
g18
tp100
a(g76
(I4
I5
Ntp101
Rp102
(L1L
L1L
tp103
tp104
aa(lp105
(g28
g28
tp106
a(g76
(I5
I6
Ntp107
Rp108
(L1L
L1L
tp109
tp110
aa(lp111
(g28
g38
tp112
a(g76
(I6
I7
Ntp113
Rp114
(L1L
L1L
tp115
tp116
aa(lp117
(g28
g48
tp118
a(g76
(I7
I8
Ntp119
Rp120
(L1L
L1L
tp121
tp122
aa(lp123
(g38
g18
tp124
a(g76
(I8
I9
Ntp125
Rp126
(L1L
L1L
tp127
tp128
aa(lp129
(g38
g28
tp130
a(g76
(I9
I10
Ntp131
Rp132
(L1L
L1L
tp133
tp134
aa(lp135
(g38
g38
tp136
a(g76
(I10
I11
Ntp137
Rp138
(L1L
L1L
tp139
tp140
aa(lp141
(g38
g48
tp142
a(g76
(I11
I12
Ntp143
Rp144
(L1L
L1L
tp145
tp146
aa(lp147
(g48
g18
tp148
a(g76
(I12
I13
Ntp149
Rp150
(L1L
L1L
tp151
tp152
aa(lp153
(g48
g28
tp154
a(g76
(I13
I14
Ntp155
Rp156
(L1L
L1L
tp157
tp158
aa(lp159
(g48
g38
tp160
a(g76
(I14
I15
Ntp161
Rp162
(L1L
L1L
tp163
tp164
aa(lp165
(g48
g48
tp166
a(g76
(I15
I16
Ntp167
Rp168
(L1L
L1L
tp169
tp170
aatp171
Rp172
sg52
g53
(g54
(I0
tp173
g56
tp174
Rp175
(I1
(L16L
tp176
g62
I00
S'D>\x80$\xae\xe7/>\x14N\xd3\xab\xe30\xf0\xbe\t\x0cs\xac\x15z\xc0\xbeiH\xc1\x92\xe0\xf9\x9a>\x14N\xd3\xab\xe30\xf0\xbec\x83H\xe6\xca\xc2\xb2?r\xd2j\xaf}\xa4{\xbf\x8b\x82\xb6\xe747\x8c\xbf\t\x0cs\xac\x15z\xc0\xber\xd2j\xaf}\xa4{\xbfY5A\xb7\xad\x98\xaa?\x8cK\xaa\xc4[\xecm?iH\xc1\x92\xe0\xf9\x9a>\x8b\x82\xb6\xe747\x8c\xbf\x8cK\xaa\xc4[\xecm?\xc5\xdc\x8c\xee\xee\x07\xa1?'
p177
tp178
bsbs.