(dp0
S'gmean'
p1
cgvar._bufferdict
BufferDict
p2
(tRp3
(dp4
S'layout'
p5
ccollections
OrderedDict
p6
((lp7
(lp8
cnumpy.core.multiarray
scalar
p9
(cnumpy
dtype
p10
(S'S6'
p11
I0
I1
tp12
Rp13
(I3
S'|'
p14
NNNI6
I1
I0
tp15
bS'A_loga'
p16
tp17
Rp18
a(I0
(ttp19
aa(lp20
g9
(g10
(S'S3'
p21
I0
I1
tp22
Rp23
(I3
S'|'
p24
NNNI3
I1
I0
tp25
bS'L_5'
p26
tp27
Rp28
a(I1
(ttp29
aa(lp30
g9
(g10
(S'S3'
p31
I0
I1
tp32
Rp33
(I3
S'|'
p34
NNNI3
I1
I0
tp35
bS'A_k'
p36
tp37
Rp38
a(I2
(ttp39
aa(lp40
g9
(g10
(S'S3'
p41
I0
I1
tp42
Rp43
(I3
S'|'
p44
NNNI3
I1
I0
tp45
bS'A_a'
p46
tp47
Rp48
a(I3
(ttp49
aa(lp50
g9
(g10
(S'S3'
p51
I0
I1
tp52
Rp53
(I3
S'|'
p54
NNNI3
I1
I0
tp55
bS'A_p'
p56
tp57
Rp58
a(I4
(ttp59
aatp60
Rp61
sS'buf'
p62
cnumpy.core.multiarray
_reconstruct
p63
(cnumpy
ndarray
p64
(I0
tp65
S'b'
p66
tp67
Rp68
(I1
(L5L
tp69
g10
(S'f8'
p70
I0
I1
tp71
Rp72
(I3
S'<'
p73
NNNI-1
I-1
I0
tp74
bI00
S'jS\x97\xe1\xf7\xd4\xe9\xbf\xaf\x00P\xa2G8#?\xd2\x15]e\x7f\xc6\x00\xc0x\\\x0eM)K\xfe\xbfk\x84\x91H\xc6(\x06@'
p75
tp76
bsbsS'tag'
p77
(S'pickle'
p78
Ntp79
sS'gcov'
p80
g2
(tRp81
(dp82
g5
g6
((lp83
(lp84
(g18
g18
tp85
a(c__builtin__
slice
p86
(I0
I1
Ntp87
Rp88
(L1L
L1L
tp89
tp90
aa(lp91
(g18
g28
tp92
a(g86
(I1
I2
Ntp93
Rp94
(L1L
L1L
tp95
tp96
aa(lp97
(g18
g38
tp98
a(g86
(I2
I3
Ntp99
Rp100
(L1L
L1L
tp101
tp102
aa(lp103
(g18
g48
tp104
a(g86
(I3
I4
Ntp105
Rp106
(L1L
L1L
tp107
tp108
aa(lp109
(g18
g58
tp110
a(g86
(I4
I5
Ntp111
Rp112
(L1L
L1L
tp113
tp114
aa(lp115
(g28
g18
tp116
a(g86
(I5
I6
Ntp117
Rp118
(L1L
L1L
tp119
tp120
aa(lp121
(g28
g28
tp122
a(g86
(I6
I7
Ntp123
Rp124
(L1L
L1L
tp125
tp126
aa(lp127
(g28
g38
tp128
a(g86
(I7
I8
Ntp129
Rp130
(L1L
L1L
tp131
tp132
aa(lp133
(g28
g48
tp134
a(g86
(I8
I9
Ntp135
Rp136
(L1L
L1L
tp137
tp138
aa(lp139
(g28
g58
tp140
a(g86
(I9
I10
Ntp141
Rp142
(L1L
L1L
tp143
tp144
aa(lp145
(g38
g18
tp146
a(g86
(I10
I11
Ntp147
Rp148
(L1L
L1L
tp149
tp150
aa(lp151
(g38
g28
tp152
a(g86
(I11
I12
Ntp153
Rp154
(L1L
L1L
tp155
tp156
aa(lp157
(g38
g38
tp158
a(g86
(I12
I13
Ntp159
Rp160
(L1L
L1L
tp161
tp162
aa(lp163
(g38
g48
tp164
a(g86
(I13
I14
Ntp165
Rp166
(L1L
L1L
tp167
tp168
aa(lp169
(g38
g58
tp170
a(g86
(I14
I15
Ntp171
Rp172
(L1L
L1L
tp173
tp174
aa(lp175
(g48
g18
tp176
a(g86
(I15
I16
Ntp177
Rp178
(L1L
L1L
tp179
tp180
aa(lp181
(g48
g28
tp182
a(g86
(I16
I17
Ntp183
Rp184
(L1L
L1L
tp185
tp186
aa(lp187
(g48
g38
tp188
a(g86
(I17
I18
Ntp189
Rp190
(L1L
L1L
tp191
tp192
aa(lp193
(g48
g48
tp194
a(g86
(I18
I19
Ntp195
Rp196
(L1L
L1L
tp197
tp198
aa(lp199
(g48
g58
tp200
a(g86
(I19
I20
Ntp201
Rp202
(L1L
L1L
tp203
tp204
aa(lp205
(g58
g18
tp206
a(g86
(I20
I21
Ntp207
Rp208
(L1L
L1L
tp209
tp210
aa(lp211
(g58
g28
tp212
a(g86
(I21
I22
Ntp213
Rp214
(L1L
L1L
tp215
tp216
aa(lp217
(g58
g38
tp218
a(g86
(I22
I23
Ntp219
Rp220
(L1L
L1L
tp221
tp222
aa(lp223
(g58
g48
tp224
a(g86
(I23
I24
Ntp225
Rp226
(L1L
L1L
tp227
tp228
aa(lp229
(g58
g58
tp230
a(g86
(I24
I25
Ntp231
Rp232
(L1L
L1L
tp233
tp234
aatp235
Rp236
sg62
g63
(g64
(I0
tp237
g66
tp238
Rp239
(I1
(L25L
tp240
g72
I00
S'b\t%\x1e}\x81\x08@\xd2\xeb\x85\xaa\xbd:\x10?<{\xdb\x8cL\x08\xc2\xbf\xf5\xd7\xbe\xd9\xe4\x15\x00\xc07\x14\x87\xd4\xe5\xcbd\xbf\xd2\xeb\x85\xaa\xbd:\x10?z\x85V\x98i(\x82>\xcf:J\xb3m\x04@\xbfC\x13D\rG\xdb\xf3>\x82\xdaU\xb6\xf4\x89\xc4><{\xdb\x8cL\x08\xc2\xbf\xcf:J\xb3m\x04@\xbf~\xa8\xf2\x87\xa6\\\xfc?\xac4\xba\x8f$\xdf\xc0\xbf\x01\xef\xe1\xe5\xe7\xf2\x8d\xbf\xf5\xd7\xbe\xd9\xe4\x15\x00\xc0C\x13D\rG\xdb\xf3>\xac4\xba\x8f$\xdf\xc0\xbf\xf5\x0f\xa5\x8b\xe0\x0f\xf6?\x16\x8a\x83Cm\x1cp?7\x14\x87\xd4\xe5\xcbd\xbf\x82\xdaU\xb6\xf4\x89\xc4>\x01\xef\xe1\xe5\xe7\xf2\x8d\xbf\x16\x8a\x83Cm\x1cp?\xcd\x16\xcb\xda\xf4\x83\x90?'
p241
tp242
bsbs.